target datalayout = "e-m:e-p270:32:32-p271:32:32-p272:64:64-i64:64-i128:128-f80:128-n8:16:32:64-S128"
target triple = "x86_64-pc-linux-gnu"

%struct._cmsMutexPluginChunkType = type { ptr, ptr, ptr, ptr }
%struct._cmsPluginBaseStruct = type { i32, i32, i32, ptr }
%struct.cmsPluginMutex = type { %struct._cmsPluginBaseStruct, ptr, ptr, ptr, ptr }

; Function Attrs: nounwind uwtable
define hidden i32 @_cmsRegisterMutexPlugin(ptr noundef %0, ptr noundef %1) #0 {
  %3 = alloca i32, align 4
  %4 = alloca ptr, align 8
  %5 = alloca ptr, align 8
  %6 = alloca ptr, align 8
  %7 = alloca ptr, align 8
  store ptr %0, ptr %4, align 8
  store ptr %1, ptr %5, align 8
  %8 = load ptr, ptr %5, align 8
  store ptr %8, ptr %6, align 8
  %9 = load ptr, ptr %4, align 8
  %10 = call ptr @_cmsContextGetClientChunk(ptr noundef %9, i32 noundef 14)
  store ptr %10, ptr %7, align 8
  %11 = load ptr, ptr %5, align 8
  %12 = icmp eq ptr %11, null
  br i1 %12, label %13, label %22

13:                                               ; preds = %2
  %14 = load ptr, ptr %7, align 8
  %15 = getelementptr inbounds %struct._cmsMutexPluginChunkType, ptr %14, i32 0, i32 0
  store ptr null, ptr %15, align 8
  %16 = load ptr, ptr %7, align 8
  %17 = getelementptr inbounds %struct._cmsMutexPluginChunkType, ptr %16, i32 0, i32 1
  store ptr null, ptr %17, align 8
  %18 = load ptr, ptr %7, align 8
  %19 = getelementptr inbounds %struct._cmsMutexPluginChunkType, ptr %18, i32 0, i32 2
  store ptr null, ptr %19, align 8
  %20 = load ptr, ptr %7, align 8
  %21 = getelementptr inbounds %struct._cmsMutexPluginChunkType, ptr %20, i32 0, i32 3
  store ptr null, ptr %21, align 8
  store i32 1, ptr %3, align 4
  br label %64

22:                                               ; preds = %2
  %23 = load ptr, ptr %6, align 8
  %24 = getelementptr inbounds %struct.cmsPluginMutex, ptr %23, i32 0, i32 1
  %25 = load ptr, ptr %24, align 8
  %26 = icmp eq ptr %25, null
  br i1 %26, label %42, label %27

27:                                               ; preds = %22
  %28 = load ptr, ptr %6, align 8
  %29 = getelementptr inbounds %struct.cmsPluginMutex, ptr %28, i32 0, i32 2
  %30 = load ptr, ptr %29, align 8
  %31 = icmp eq ptr %30, null
  br i1 %31, label %42, label %32

32:                                               ; preds = %27
  %33 = load ptr, ptr %6, align 8
  %34 = getelementptr inbounds %struct.cmsPluginMutex, ptr %33, i32 0, i32 3
  %35 = load ptr, ptr %34, align 8
  %36 = icmp eq ptr %35, null
  br i1 %36, label %42, label %37

37:                                               ; preds = %32
  %38 = load ptr, ptr %6, align 8
  %39 = getelementptr inbounds %struct.cmsPluginMutex, ptr %38, i32 0, i32 4
  %40 = load ptr, ptr %39, align 8
  %41 = icmp eq ptr %40, null
  br i1 %41, label %42, label %43

42:                                               ; preds = %37, %32, %27, %22
  store i32 0, ptr %3, align 4
  br label %64

43:                                               ; preds = %37
  %44 = load ptr, ptr %6, align 8
  %45 = getelementptr inbounds %struct.cmsPluginMutex, ptr %44, i32 0, i32 1
  %46 = load ptr, ptr %45, align 8
  %47 = load ptr, ptr %7, align 8
  %48 = getelementptr inbounds %struct._cmsMutexPluginChunkType, ptr %47, i32 0, i32 0
  store ptr %46, ptr %48, align 8
  %49 = load ptr, ptr %6, align 8
  %50 = getelementptr inbounds %struct.cmsPluginMutex, ptr %49, i32 0, i32 2
  %51 = load ptr, ptr %50, align 8
  %52 = load ptr, ptr %7, align 8
  %53 = getelementptr inbounds %struct._cmsMutexPluginChunkType, ptr %52, i32 0, i32 1
  store ptr %51, ptr %53, align 8
  %54 = load ptr, ptr %6, align 8
  %55 = getelementptr inbounds %struct.cmsPluginMutex, ptr %54, i32 0, i32 3
  %56 = load ptr, ptr %55, align 8
  %57 = load ptr, ptr %7, align 8
  %58 = getelementptr inbounds %struct._cmsMutexPluginChunkType, ptr %57, i32 0, i32 2
  store ptr %56, ptr %58, align 8
  %59 = load ptr, ptr %6, align 8
  %60 = getelementptr inbounds %struct.cmsPluginMutex, ptr %59, i32 0, i32 4
  %61 = load ptr, ptr %60, align 8
  %62 = load ptr, ptr %7, align 8
  %63 = getelementptr inbounds %struct._cmsMutexPluginChunkType, ptr %62, i32 0, i32 3
  store ptr %61, ptr %63, align 8
  store i32 1, ptr %3, align 4
  br label %64

64:                                               ; preds = %43, %42, %13
  %65 = load i32, ptr %3, align 4
  ret i32 %65
}