; Function Attrs: nounwind uwtable
define hidden range(i32 0, 2) i32 @_cmsRegisterMutexPlugin(ptr noundef %0, ptr noundef readonly %1) local_unnamed_addr #6 {
  %3 = tail call ptr @_cmsContextGetClientChunk(ptr noundef %0, i32 noundef 14) #20
  %4 = icmp eq ptr %1, null
  br i1 %4, label %5, label %6

5:                                                ; preds = %2
  tail call void @llvm.memset.p0.i64(ptr noundef nonnull align 8 dereferenceable(32) %3, i8 0, i64 32, i1 false)
  br label %29

6:                                                ; preds = %2
  %7 = getelementptr inbounds i8, ptr %1, i64 24
  %8 = load ptr, ptr %7, align 8
  %9 = icmp eq ptr %8, null
  br i1 %9, label %29, label %10

10:                                               ; preds = %6
  %11 = getelementptr inbounds i8, ptr %1, i64 32
  %12 = load ptr, ptr %11, align 8
  %13 = icmp eq ptr %12, null
  br i1 %13, label %29, label %14

14:                                               ; preds = %10
  %15 = getelementptr inbounds i8, ptr %1, i64 40
  %16 = load ptr, ptr %15, align 8
  %17 = icmp eq ptr %16, null
  br i1 %17, label %29, label %18

18:                                               ; preds = %14
  %19 = getelementptr inbounds i8, ptr %1, i64 48
  %20 = load ptr, ptr %19, align 8
  %21 = icmp eq ptr %20, null
  br i1 %21, label %29, label %22

22:                                               ; preds = %18
  store ptr %8, ptr %3, align 8
  %23 = load ptr, ptr %11, align 8
  %24 = getelementptr inbounds i8, ptr %3, i64 8
  store ptr %23, ptr %24, align 8
  %25 = load ptr, ptr %15, align 8
  %26 = getelementptr inbounds i8, ptr %3, i64 16
  store ptr %25, ptr %26, align 8
  %27 = load ptr, ptr %19, align 8
  %28 = getelementptr inbounds i8, ptr %3, i64 24
  store ptr %27, ptr %28, align 8
  br label %29

29:                                               ; preds = %6, %10, %14, %18, %22, %5
  %.0 = phi i32 [ 1, %5 ], [ 1, %22 ], [ 0, %18 ], [ 0, %14 ], [ 0, %10 ], [ 0, %6 ]
  ret i32 %.0
}